target datalayout = "e-m:e-p270:32:32-p271:32:32-p272:64:64-i64:64-i128:128-f80:128-n8:16:32:64-S128"
target triple = "x86_64-pc-linux-gnu"

%struct.zstream = type { i64, i64, i64, i64, %struct.z_stream_s, ptr }
%struct.z_stream_s = type { ptr, i32, i64, ptr, i32, i64, ptr, ptr, ptr, ptr, ptr, i32, i64, i64 }

@rb_cString = external global i64, align 8

; Function Attrs: inlinehint nounwind sspstrong willreturn memory(none) uwtable
define internal zeroext i1 @RB_NIL_P(i64 noundef %0) #5 {
  %2 = alloca i64, align 8
  store i64 %0, ptr %2, align 8, !tbaa !6
  %3 = load i64, ptr %2, align 8, !tbaa !6
  %4 = icmp eq i64 %3, 4
  ret i1 %4
}

; Function Attrs: nounwind sspstrong uwtable
define internal i64 @zstream_detach_buffer(ptr noundef %0) #0 {
  %2 = alloca i64, align 8
  %3 = alloca ptr, align 8
  %4 = alloca i64, align 8
  %5 = alloca i32, align 4
  store ptr %0, ptr %3, align 8, !tbaa !21
  call void @llvm.lifetime.start.p0(i64 8, ptr %4) #23
  %6 = load ptr, ptr %3, align 8, !tbaa !21
  %7 = getelementptr inbounds nuw %struct.zstream, ptr %6, i32 0, i32 0
  %8 = load i64, ptr %7, align 8, !tbaa !33
  %9 = and i64 %8, 4
  %10 = icmp ne i64 %9, 0
  br i1 %10, label %21, label %11

11:                                               ; preds = %1
  %12 = load ptr, ptr %3, align 8, !tbaa !21
  %13 = getelementptr inbounds nuw %struct.zstream, ptr %12, i32 0, i32 0
  %14 = load i64, ptr %13, align 8, !tbaa !33
  %15 = and i64 %14, 16
  %16 = icmp ne i64 %15, 0
  br i1 %16, label %21, label %17

17:                                               ; preds = %11
  %18 = call i32 @rb_block_given_p()
  %19 = icmp ne i32 %18, 0
  br i1 %19, label %20, label %21

20:                                               ; preds = %17
  store i64 4, ptr %2, align 8
  store i32 1, ptr %5, align 4
  br label %64

21:                                               ; preds = %17, %11, %1
  %22 = load ptr, ptr %3, align 8, !tbaa !21
  %23 = getelementptr inbounds nuw %struct.zstream, ptr %22, i32 0, i32 1
  %24 = load i64, ptr %23, align 8, !tbaa !35
  %25 = call zeroext i1 @RB_NIL_P(i64 noundef %24) #24
  br i1 %25, label %26, label %28

26:                                               ; preds = %21
  %27 = call i64 @rb_str_new_static(ptr noundef null, i64 noundef 0)
  store i64 %27, ptr %4, align 8, !tbaa !6
  br label %42

28:                                               ; preds = %21
  %29 = load ptr, ptr %3, align 8, !tbaa !21
  %30 = getelementptr inbounds nuw %struct.zstream, ptr %29, i32 0, i32 1
  %31 = load i64, ptr %30, align 8, !tbaa !35
  store i64 %31, ptr %4, align 8, !tbaa !6
  %32 = load ptr, ptr %3, align 8, !tbaa !21
  %33 = getelementptr inbounds nuw %struct.zstream, ptr %32, i32 0, i32 0
  %34 = load i64, ptr %33, align 8, !tbaa !33
  %35 = and i64 %34, 32
  %36 = icmp ne i64 %35, 0
  br i1 %36, label %41, label %37

37:                                               ; preds = %28
  %38 = load i64, ptr %4, align 8, !tbaa !6
  %39 = load i64, ptr @rb_cString, align 8, !tbaa !6
  %40 = call i64 @rb_obj_reveal(i64 noundef %38, i64 noundef %39)
  br label %41

41:                                               ; preds = %37, %28
  br label %42

42:                                               ; preds = %41, %26
  %43 = load ptr, ptr %3, align 8, !tbaa !21
  %44 = getelementptr inbounds nuw %struct.zstream, ptr %43, i32 0, i32 1
  store i64 4, ptr %44, align 8, !tbaa !35
  %45 = load ptr, ptr %3, align 8, !tbaa !21
  %46 = getelementptr inbounds nuw %struct.zstream, ptr %45, i32 0, i32 4
  %47 = getelementptr inbounds nuw %struct.z_stream_s, ptr %46, i32 0, i32 3
  store ptr null, ptr %47, align 8, !tbaa !96
  %48 = load ptr, ptr %3, align 8, !tbaa !21
  %49 = getelementptr inbounds nuw %struct.zstream, ptr %48, i32 0, i32 4
  %50 = getelementptr inbounds nuw %struct.z_stream_s, ptr %49, i32 0, i32 4
  store i32 0, ptr %50, align 8, !tbaa !23
  %51 = load ptr, ptr %3, align 8, !tbaa !21
  %52 = getelementptr inbounds nuw %struct.zstream, ptr %51, i32 0, i32 0
  %53 = load i64, ptr %52, align 8, !tbaa !33
  %54 = and i64 %53, 16
  %55 = icmp ne i64 %54, 0
  br i1 %55, label %62, label %56

56:                                               ; preds = %42
  %57 = call i32 @rb_block_given_p()
  %58 = icmp ne i32 %57, 0
  br i1 %58, label %59, label %62

59:                                               ; preds = %56
  %60 = load i64, ptr %4, align 8, !tbaa !6
  %61 = call i64 @rb_yield(i64 noundef %60)
  store i64 4, ptr %4, align 8, !tbaa !6
  br label %62

62:                                               ; preds = %59, %56, %42
  %63 = load i64, ptr %4, align 8, !tbaa !6
  store i64 %63, ptr %2, align 8
  store i32 1, ptr %5, align 4
  br label %64

64:                                               ; preds = %62, %20
  call void @llvm.lifetime.end.p0(i64 8, ptr %4) #23
  %65 = load i64, ptr %2, align 8
  ret i64 %65
}