; Function Attrs: nounwind sspstrong uwtable
define internal fastcc i64 @zstream_detach_buffer(ptr noundef captures(none) %0) unnamed_addr #0 {
  %2 = load i64, ptr %0, align 8, !tbaa !42
  %3 = and i64 %2, 20
  %or.cond = icmp eq i64 %3, 0
  br i1 %or.cond, label %4, label %6

4:                                                ; preds = %1
  %5 = tail call i32 @rb_block_given_p() #18
  %.not14 = icmp eq i32 %5, 0
  br i1 %.not14, label %6, label %27

6:                                                ; preds = %4, %1
  %7 = getelementptr inbounds nuw i8, ptr %0, i64 8
  %8 = load i64, ptr %7, align 8, !tbaa !43
  %9 = icmp eq i64 %8, 4
  br i1 %9, label %10, label %12

10:                                               ; preds = %6
  %11 = tail call i64 @rb_str_new_static(ptr noundef null, i64 noundef 0) #18
  br label %18

12:                                               ; preds = %6
  %13 = load i64, ptr %0, align 8, !tbaa !42
  %14 = and i64 %13, 32
  %.not15 = icmp eq i64 %14, 0
  br i1 %.not15, label %15, label %18

15:                                               ; preds = %12
  %16 = load i64, ptr @rb_cString, align 8, !tbaa !6
  %17 = tail call i64 @rb_obj_reveal(i64 noundef %8, i64 noundef %16) #18
  br label %18

18:                                               ; preds = %12, %15, %10
  %.0 = phi i64 [ %11, %10 ], [ %8, %12 ], [ %8, %15 ]
  store i64 4, ptr %7, align 8, !tbaa !43
  %19 = getelementptr inbounds nuw i8, ptr %0, i64 56
  store ptr null, ptr %19, align 8, !tbaa !47
  %20 = getelementptr inbounds nuw i8, ptr %0, i64 64
  store i32 0, ptr %20, align 8, !tbaa !36
  %21 = load i64, ptr %0, align 8, !tbaa !42
  %22 = and i64 %21, 16
  %.not16 = icmp eq i64 %22, 0
  br i1 %.not16, label %23, label %27

23:                                               ; preds = %18
  %24 = tail call i32 @rb_block_given_p() #18
  %.not17 = icmp eq i32 %24, 0
  br i1 %.not17, label %27, label %25

25:                                               ; preds = %23
  %26 = tail call i64 @rb_yield(i64 noundef %.0) #18
  br label %27

27:                                               ; preds = %18, %23, %25, %4
  %.012 = phi i64 [ 4, %4 ], [ %.0, %18 ], [ 4, %25 ], [ %.0, %23 ]
  ret i64 %.012
}